target datalayout = "e-m:e-p270:32:32-p271:32:32-p272:64:64-i64:64-i128:128-f80:128-n8:16:32:64-S128"
target triple = "x86_64-pc-linux-gnu"

%struct.crawler_client_t = type { ptr, i32, i32, i32, ptr }
%struct.timeval = type { i64, i64 }
%struct.pollfd = type { i32, i16, i16 }
%struct.conn = type { ptr, i32, i8, i8, i8, i8, i8, i8, i8, i8, ptr, i32, i32, i32, %struct.event, i16, i16, ptr, ptr, i32, i32, ptr, ptr, ptr, i32, ptr, i32, i32, i32, i32, i32, i32, i32, %struct.sockaddr_in6, i32, i8, %struct.anon.10, %union.protocol_binary_request_header, i64, i64, i16, i32, i32, ptr, ptr, ptr, ptr, ptr, ptr }
%struct.event = type { %struct.event_callback, %union.anon.2, i32, ptr, %union.anon.4, i16, i16, %struct.timeval }
%struct.event_callback = type { %struct.anon.0, i16, i8, i8, %union.anon.1, ptr }
%struct.anon.0 = type { ptr, ptr }
%union.anon.1 = type { ptr }
%union.anon.2 = type { %struct.anon.3 }
%struct.anon.3 = type { ptr, ptr }
%union.anon.4 = type { %struct.anon.5 }
%struct.anon.5 = type { %struct.anon.6, %struct.timeval }
%struct.anon.6 = type { ptr, ptr }
%struct.sockaddr_in6 = type { i16, i16, i32, %struct.in6_addr, i32 }
%struct.in6_addr = type { %union.anon.9 }
%union.anon.9 = type { [4 x i32] }
%struct.anon.10 = type { ptr, i64, i64 }
%union.protocol_binary_request_header = type { %struct.anon.11 }
%struct.anon.11 = type { i8, i8, i16, i8, i8, i16, i32, i32, i64 }

; Function Attrs: nounwind uwtable
define internal void @lru_crawler_close_client(ptr noundef %0) #0 {
  %2 = alloca ptr, align 8
  store ptr %0, ptr %2, align 8, !tbaa !9
  %3 = load ptr, ptr %2, align 8, !tbaa !9
  %4 = getelementptr inbounds nuw %struct.crawler_client_t, ptr %3, i32 0, i32 0
  %5 = load ptr, ptr %4, align 8, !tbaa !85
  call void @sidethread_conn_close(ptr noundef %5)
  %6 = load ptr, ptr %2, align 8, !tbaa !9
  %7 = getelementptr inbounds nuw %struct.crawler_client_t, ptr %6, i32 0, i32 0
  store ptr null, ptr %7, align 8, !tbaa !85
  %8 = load ptr, ptr %2, align 8, !tbaa !9
  %9 = getelementptr inbounds nuw %struct.crawler_client_t, ptr %8, i32 0, i32 4
  %10 = load ptr, ptr %9, align 8, !tbaa !87
  call void @free(ptr noundef %10) #11
  %11 = load ptr, ptr %2, align 8, !tbaa !9
  %12 = getelementptr inbounds nuw %struct.crawler_client_t, ptr %11, i32 0, i32 4
  store ptr null, ptr %12, align 8, !tbaa !87
  ret void
}

; Function Attrs: nounwind uwtable
define internal i32 @lru_crawler_write(ptr noundef %0) #0 {
  %2 = alloca i32, align 4
  %3 = alloca ptr, align 8
  %4 = alloca i32, align 4
  %5 = alloca i32, align 4
  %6 = alloca [1 x %struct.pollfd], align 4
  %7 = alloca i32, align 4
  %8 = alloca i32, align 4
  %9 = alloca [1 x i8], align 1
  %10 = alloca i32, align 4
  %11 = alloca i32, align 4
  store ptr %0, ptr %3, align 8, !tbaa !9
  call void @llvm.lifetime.start.p0(i64 4, ptr %4) #11
  %12 = load ptr, ptr %3, align 8, !tbaa !9
  %13 = getelementptr inbounds nuw %struct.crawler_client_t, ptr %12, i32 0, i32 3
  %14 = load i32, ptr %13, align 8, !tbaa !63
  store i32 %14, ptr %4, align 4, !tbaa !20
  call void @llvm.lifetime.start.p0(i64 4, ptr %5) #11
  store i32 0, ptr %5, align 4, !tbaa !20
  call void @llvm.lifetime.start.p0(i64 8, ptr %6) #11
  %15 = load ptr, ptr %3, align 8, !tbaa !9
  %16 = getelementptr inbounds nuw %struct.crawler_client_t, ptr %15, i32 0, i32 1
  %17 = load i32, ptr %16, align 8, !tbaa !86
  %18 = getelementptr inbounds [1 x %struct.pollfd], ptr %6, i64 0, i64 0
  %19 = getelementptr inbounds nuw %struct.pollfd, ptr %18, i32 0, i32 0
  store i32 %17, ptr %19, align 4, !tbaa !96
  %20 = getelementptr inbounds [1 x %struct.pollfd], ptr %6, i64 0, i64 0
  %21 = getelementptr inbounds nuw %struct.pollfd, ptr %20, i32 0, i32 1
  store i16 4, ptr %21, align 4, !tbaa !98
  %22 = load ptr, ptr %3, align 8, !tbaa !9
  %23 = getelementptr inbounds nuw %struct.crawler_client_t, ptr %22, i32 0, i32 0
  %24 = load ptr, ptr %23, align 8, !tbaa !85
  %25 = icmp eq ptr %24, null
  br i1 %25, label %26, label %27

26:                                               ; preds = %1
  store i32 -1, ptr %2, align 4
  store i32 1, ptr %7, align 4
  br label %156

27:                                               ; preds = %1
  %28 = load i32, ptr %4, align 4, !tbaa !20
  %29 = icmp eq i32 %28, 0
  br i1 %29, label %30, label %31

30:                                               ; preds = %27
  store i32 0, ptr %2, align 4
  store i32 1, ptr %7, align 4
  br label %156

31:                                               ; preds = %27
  br label %32

32:                                               ; preds = %152, %31
  %33 = load i32, ptr %5, align 4, !tbaa !20
  %34 = load i32, ptr %4, align 4, !tbaa !20
  %35 = icmp ult i32 %33, %34
  br i1 %35, label %36, label %153

36:                                               ; preds = %32
  call void @llvm.lifetime.start.p0(i64 4, ptr %8) #11
  %37 = getelementptr inbounds [1 x %struct.pollfd], ptr %6, i64 0, i64 0
  %38 = call i32 @poll(ptr noundef %37, i64 noundef 1, i32 noundef 1000)
  store i32 %38, ptr %8, align 4, !tbaa !20
  %39 = load i32, ptr %8, align 4, !tbaa !20
  %40 = icmp slt i32 %39, 0
  br i1 %40, label %41, label %43

41:                                               ; preds = %36
  %42 = load ptr, ptr %3, align 8, !tbaa !9
  call void @lru_crawler_close_client(ptr noundef %42)
  store i32 -1, ptr %2, align 4
  store i32 1, ptr %7, align 4
  br label %150

43:                                               ; preds = %36
  %44 = load i32, ptr %8, align 4, !tbaa !20
  %45 = icmp eq i32 %44, 0
  br i1 %45, label %46, label %47

46:                                               ; preds = %43
  store i32 0, ptr %2, align 4
  store i32 1, ptr %7, align 4
  br label %150

47:                                               ; preds = %43
  %48 = getelementptr inbounds [1 x %struct.pollfd], ptr %6, i64 0, i64 0
  %49 = getelementptr inbounds nuw %struct.pollfd, ptr %48, i32 0, i32 2
  %50 = load i16, ptr %49, align 2, !tbaa !99
  %51 = sext i16 %50 to i32
  %52 = and i32 %51, 1
  %53 = icmp ne i32 %52, 0
  br i1 %53, label %54, label %85

54:                                               ; preds = %47
  call void @llvm.lifetime.start.p0(i64 1, ptr %9) #11
  call void @llvm.lifetime.start.p0(i64 4, ptr %10) #11
  %55 = load ptr, ptr %3, align 8, !tbaa !9
  %56 = getelementptr inbounds nuw %struct.crawler_client_t, ptr %55, i32 0, i32 0
  %57 = load ptr, ptr %56, align 8, !tbaa !85
  %58 = getelementptr inbounds nuw %struct.conn, ptr %57, i32 0, i32 46
  %59 = load ptr, ptr %58, align 8, !tbaa !100
  %60 = load ptr, ptr %3, align 8, !tbaa !9
  %61 = getelementptr inbounds nuw %struct.crawler_client_t, ptr %60, i32 0, i32 0
  %62 = load ptr, ptr %61, align 8, !tbaa !85
  %63 = getelementptr inbounds [1 x i8], ptr %9, i64 0, i64 0
  %64 = call i64 %59(ptr noundef %62, ptr noundef %63, i64 noundef 1)
  %65 = trunc i64 %64 to i32
  store i32 %65, ptr %10, align 4, !tbaa !20
  %66 = load i32, ptr %10, align 4, !tbaa !20
  %67 = icmp eq i32 %66, 0
  br i1 %67, label %79, label %68

68:                                               ; preds = %54
  %69 = load i32, ptr %10, align 4, !tbaa !20
  %70 = icmp eq i32 %69, -1
  br i1 %70, label %71, label %81

71:                                               ; preds = %68
  %72 = call ptr @__errno_location() #15
  %73 = load i32, ptr %72, align 4, !tbaa !20
  %74 = icmp ne i32 %73, 11
  br i1 %74, label %75, label %81

75:                                               ; preds = %71
  %76 = call ptr @__errno_location() #15
  %77 = load i32, ptr %76, align 4, !tbaa !20
  %78 = icmp ne i32 %77, 11
  br i1 %78, label %79, label %81

79:                                               ; preds = %75, %54
  %80 = load ptr, ptr %3, align 8, !tbaa !9
  call void @lru_crawler_close_client(ptr noundef %80)
  store i32 -1, ptr %2, align 4
  store i32 1, ptr %7, align 4
  br label %82

81:                                               ; preds = %75, %71, %68
  store i32 0, ptr %7, align 4
  br label %82

82:                                               ; preds = %81, %79
  call void @llvm.lifetime.end.p0(i64 4, ptr %10) #11
  call void @llvm.lifetime.end.p0(i64 1, ptr %9) #11
  %83 = load i32, ptr %7, align 4
  switch i32 %83, label %150 [
    i32 0, label %84
  ]

84:                                               ; preds = %82
  br label %85

85:                                               ; preds = %84, %47
  %86 = getelementptr inbounds [1 x %struct.pollfd], ptr %6, i64 0, i64 0
  %87 = getelementptr inbounds nuw %struct.pollfd, ptr %86, i32 0, i32 2
  %88 = load i16, ptr %87, align 2, !tbaa !99
  %89 = sext i16 %88 to i32
  %90 = and i32 %89, 24
  %91 = icmp ne i32 %90, 0
  br i1 %91, label %92, label %94

92:                                               ; preds = %85
  %93 = load ptr, ptr %3, align 8, !tbaa !9
  call void @lru_crawler_close_client(ptr noundef %93)
  store i32 -1, ptr %2, align 4
  store i32 1, ptr %7, align 4
  br label %150

94:                                               ; preds = %85
  %95 = getelementptr inbounds [1 x %struct.pollfd], ptr %6, i64 0, i64 0
  %96 = getelementptr inbounds nuw %struct.pollfd, ptr %95, i32 0, i32 2
  %97 = load i16, ptr %96, align 2, !tbaa !99
  %98 = sext i16 %97 to i32
  %99 = and i32 %98, 4
  %100 = icmp ne i32 %99, 0
  br i1 %100, label %101, label %148

101:                                              ; preds = %94
  call void @llvm.lifetime.start.p0(i64 4, ptr %11) #11
  %102 = load ptr, ptr %3, align 8, !tbaa !9
  %103 = getelementptr inbounds nuw %struct.crawler_client_t, ptr %102, i32 0, i32 0
  %104 = load ptr, ptr %103, align 8, !tbaa !85
  %105 = getelementptr inbounds nuw %struct.conn, ptr %104, i32 0, i32 48
  %106 = load ptr, ptr %105, align 8, !tbaa !113
  %107 = load ptr, ptr %3, align 8, !tbaa !9
  %108 = getelementptr inbounds nuw %struct.crawler_client_t, ptr %107, i32 0, i32 0
  %109 = load ptr, ptr %108, align 8, !tbaa !85
  %110 = load ptr, ptr %3, align 8, !tbaa !9
  %111 = getelementptr inbounds nuw %struct.crawler_client_t, ptr %110, i32 0, i32 4
  %112 = load ptr, ptr %111, align 8, !tbaa !87
  %113 = load i32, ptr %5, align 4, !tbaa !20
  %114 = zext i32 %113 to i64
  %115 = getelementptr inbounds nuw i8, ptr %112, i64 %114
  %116 = load i32, ptr %4, align 4, !tbaa !20
  %117 = load i32, ptr %5, align 4, !tbaa !20
  %118 = sub i32 %116, %117
  %119 = zext i32 %118 to i64
  %120 = call i64 %106(ptr noundef %109, ptr noundef %115, i64 noundef %119)
  %121 = trunc i64 %120 to i32
  store i32 %121, ptr %11, align 4, !tbaa !20
  %122 = load i32, ptr %11, align 4, !tbaa !20
  %123 = icmp eq i32 %122, -1
  br i1 %123, label %124, label %135

124:                                              ; preds = %101
  %125 = call ptr @__errno_location() #15
  %126 = load i32, ptr %125, align 4, !tbaa !20
  %127 = icmp ne i32 %126, 11
  br i1 %127, label %128, label %134

128:                                              ; preds = %124
  %129 = call ptr @__errno_location() #15
  %130 = load i32, ptr %129, align 4, !tbaa !20
  %131 = icmp ne i32 %130, 11
  br i1 %131, label %132, label %134

132:                                              ; preds = %128
  %133 = load ptr, ptr %3, align 8, !tbaa !9
  call void @lru_crawler_close_client(ptr noundef %133)
  store i32 -1, ptr %2, align 4
  store i32 1, ptr %7, align 4
  br label %145

134:                                              ; preds = %128, %124
  br label %141

135:                                              ; preds = %101
  %136 = load i32, ptr %11, align 4, !tbaa !20
  %137 = icmp eq i32 %136, 0
  br i1 %137, label %138, label %140

138:                                              ; preds = %135
  %139 = load ptr, ptr %3, align 8, !tbaa !9
  call void @lru_crawler_close_client(ptr noundef %139)
  store i32 -1, ptr %2, align 4
  store i32 1, ptr %7, align 4
  br label %145

140:                                              ; preds = %135
  br label %141

141:                                              ; preds = %140, %134
  %142 = load i32, ptr %11, align 4, !tbaa !20
  %143 = load i32, ptr %5, align 4, !tbaa !20
  %144 = add i32 %143, %142
  store i32 %144, ptr %5, align 4, !tbaa !20
  store i32 0, ptr %7, align 4
  br label %145

145:                                              ; preds = %141, %138, %132
  call void @llvm.lifetime.end.p0(i64 4, ptr %11) #11
  %146 = load i32, ptr %7, align 4
  switch i32 %146, label %150 [
    i32 0, label %147
  ]

147:                                              ; preds = %145
  br label %148

148:                                              ; preds = %147, %94
  br label %149

149:                                              ; preds = %148
  store i32 0, ptr %7, align 4
  br label %150

150:                                              ; preds = %149, %145, %92, %82, %46, %41
  call void @llvm.lifetime.end.p0(i64 4, ptr %8) #11
  %151 = load i32, ptr %7, align 4
  switch i32 %151, label %156 [
    i32 0, label %152
  ]

152:                                              ; preds = %150
  br label %32, !llvm.loop !114

153:                                              ; preds = %32
  %154 = load ptr, ptr %3, align 8, !tbaa !9
  %155 = getelementptr inbounds nuw %struct.crawler_client_t, ptr %154, i32 0, i32 3
  store i32 0, ptr %155, align 8, !tbaa !63
  store i32 0, ptr %2, align 4
  store i32 1, ptr %7, align 4
  br label %156

156:                                              ; preds = %153, %150, %30, %26
  call void @llvm.lifetime.end.p0(i64 8, ptr %6) #11
  call void @llvm.lifetime.end.p0(i64 4, ptr %5) #11
  call void @llvm.lifetime.end.p0(i64 4, ptr %4) #11
  %157 = load i32, ptr %2, align 4
  ret i32 %157
}