; Function Attrs: nounwind uwtable
define internal fastcc range(i32 -1, 1) i32 @lru_crawler_write(ptr noundef captures(none) %0) unnamed_addr #0 {
  %2 = alloca [1 x %struct.pollfd], align 4
  %3 = alloca [1 x i8], align 1
  %4 = getelementptr inbounds nuw i8, ptr %0, i64 16
  %5 = load i32, ptr %4, align 8, !tbaa !61
  call void @llvm.lifetime.start.p0(i64 8, ptr nonnull %2) #18
  %6 = getelementptr inbounds nuw i8, ptr %0, i64 8
  %7 = load i32, ptr %6, align 8, !tbaa !83
  store i32 %7, ptr %2, align 4, !tbaa !89
  %8 = getelementptr inbounds nuw i8, ptr %2, i64 4
  store i16 4, ptr %8, align 4, !tbaa !91
  %9 = load ptr, ptr %0, align 8, !tbaa !72
  %10 = icmp eq ptr %9, null
  br i1 %10, label %.thread51, label %11

11:                                               ; preds = %1
  %12 = icmp eq i32 %5, 0
  br i1 %12, label %.thread51, label %.preheader

.preheader:                                       ; preds = %11
  %13 = getelementptr inbounds nuw i8, ptr %2, i64 6
  %14 = getelementptr inbounds nuw i8, ptr %0, i64 24
  br label %15

15:                                               ; preds = %.preheader, %68
  %.03356 = phi i32 [ 0, %.preheader ], [ %.134, %68 ]
  %16 = call i32 @poll(ptr noundef nonnull %2, i64 noundef 1, i32 noundef 1000) #18
  %17 = icmp slt i32 %16, 0
  br i1 %17, label %18, label %21

18:                                               ; preds = %15
  %19 = load ptr, ptr %0, align 8, !tbaa !72
  call void @sidethread_conn_close(ptr noundef %19) #18
  store ptr null, ptr %0, align 8, !tbaa !72
  %20 = load ptr, ptr %14, align 8, !tbaa !62
  call void @free(ptr noundef %20) #18
  store ptr null, ptr %14, align 8, !tbaa !62
  br label %.thread51

21:                                               ; preds = %15
  %22 = icmp eq i32 %16, 0
  br i1 %22, label %.thread51, label %23

23:                                               ; preds = %21
  %24 = load i16, ptr %13, align 2, !tbaa !92
  %25 = and i16 %24, 1
  %.not = icmp eq i16 %25, 0
  br i1 %.not, label %38, label %26

26:                                               ; preds = %23
  call void @llvm.lifetime.start.p0(i64 1, ptr nonnull %3) #18
  %27 = load ptr, ptr %0, align 8, !tbaa !72
  %28 = getelementptr inbounds nuw i8, ptr %27, i64 416
  %29 = load ptr, ptr %28, align 8, !tbaa !93
  %30 = call i64 %29(ptr noundef %27, ptr noundef nonnull %3, i64 noundef 1) #18
  %31 = trunc i64 %30 to i32
  switch i32 %31, label %.thread [
    i32 0, label %35
    i32 -1, label %32
  ]

32:                                               ; preds = %26
  %33 = tail call ptr @__errno_location() #24
  %34 = load i32, ptr %33, align 4, !tbaa !10
  %.not44 = icmp eq i32 %34, 11
  br i1 %.not44, label %.thread, label %35

.thread:                                          ; preds = %26, %32
  call void @llvm.lifetime.end.p0(i64 1, ptr nonnull %3) #18
  %.pre = load i16, ptr %13, align 2, !tbaa !92
  br label %38

35:                                               ; preds = %26, %32
  %36 = load ptr, ptr %0, align 8, !tbaa !72
  call void @sidethread_conn_close(ptr noundef %36) #18
  store ptr null, ptr %0, align 8, !tbaa !72
  %37 = load ptr, ptr %14, align 8, !tbaa !62
  call void @free(ptr noundef %37) #18
  store ptr null, ptr %14, align 8, !tbaa !62
  call void @llvm.lifetime.end.p0(i64 1, ptr nonnull %3) #18
  br label %.thread51

38:                                               ; preds = %.thread, %23
  %39 = phi i16 [ %.pre, %.thread ], [ %24, %23 ]
  %40 = and i16 %39, 24
  %.not45 = icmp eq i16 %40, 0
  br i1 %.not45, label %44, label %41

41:                                               ; preds = %38
  %42 = load ptr, ptr %0, align 8, !tbaa !72
  call void @sidethread_conn_close(ptr noundef %42) #18
  store ptr null, ptr %0, align 8, !tbaa !72
  %43 = load ptr, ptr %14, align 8, !tbaa !62
  call void @free(ptr noundef %43) #18
  store ptr null, ptr %14, align 8, !tbaa !62
  br label %.thread51

44:                                               ; preds = %38
  %45 = and i16 %39, 4
  %.not46 = icmp eq i16 %45, 0
  br i1 %.not46, label %68, label %46

46:                                               ; preds = %44
  %47 = load ptr, ptr %0, align 8, !tbaa !72
  %48 = getelementptr inbounds nuw i8, ptr %47, i64 432
  %49 = load ptr, ptr %48, align 8, !tbaa !106
  %50 = load ptr, ptr %14, align 8, !tbaa !62
  %51 = zext i32 %.03356 to i64
  %52 = getelementptr inbounds nuw i8, ptr %50, i64 %51
  %53 = sub i32 %5, %.03356
  %54 = zext i32 %53 to i64
  %55 = call i64 %49(ptr noundef %47, ptr noundef %52, i64 noundef %54) #18
  %56 = trunc i64 %55 to i32
  switch i32 %56, label %66 [
    i32 -1, label %57
    i32 0, label %63
  ]

57:                                               ; preds = %46
  %58 = tail call ptr @__errno_location() #24
  %59 = load i32, ptr %58, align 4, !tbaa !10
  %.not47 = icmp eq i32 %59, 11
  br i1 %.not47, label %66, label %60

60:                                               ; preds = %57
  %61 = load ptr, ptr %0, align 8, !tbaa !72
  call void @sidethread_conn_close(ptr noundef %61) #18
  store ptr null, ptr %0, align 8, !tbaa !72
  %62 = load ptr, ptr %14, align 8, !tbaa !62
  call void @free(ptr noundef %62) #18
  store ptr null, ptr %14, align 8, !tbaa !62
  br label %.thread51

63:                                               ; preds = %46
  %64 = load ptr, ptr %0, align 8, !tbaa !72
  call void @sidethread_conn_close(ptr noundef %64) #18
  store ptr null, ptr %0, align 8, !tbaa !72
  %65 = load ptr, ptr %14, align 8, !tbaa !62
  call void @free(ptr noundef %65) #18
  store ptr null, ptr %14, align 8, !tbaa !62
  br label %.thread51

66:                                               ; preds = %46, %57
  %67 = add i32 %.03356, %56
  br label %68

68:                                               ; preds = %66, %44
  %.134 = phi i32 [ %.03356, %44 ], [ %67, %66 ]
  %69 = icmp ult i32 %.134, %5
  br i1 %69, label %15, label %70, !llvm.loop !107

70:                                               ; preds = %68
  store i32 0, ptr %4, align 8, !tbaa !61
  br label %.thread51

.thread51:                                        ; preds = %21, %63, %60, %35, %41, %18, %11, %1, %70
  %.0 = phi i32 [ 0, %70 ], [ -1, %1 ], [ 0, %11 ], [ -1, %63 ], [ -1, %60 ], [ -1, %35 ], [ -1, %41 ], [ -1, %18 ], [ 0, %21 ]
  call void @llvm.lifetime.end.p0(i64 8, ptr nonnull %2) #18
  ret i32 %.0
}